; Function Attrs: mustprogress nofree norecurse nosync nounwind willreturn memory(read, inaccessiblemem: none) uwtable
define dso_local noundef i32 @_ZN5ImGui11GetKeyOwnerE8ImGuiKey(i32 noundef %0) local_unnamed_addr #31 {
  %2 = add i32 %0, -512
  %or.cond.i = icmp ult i32 %2, 154
  br i1 %or.cond.i, label %5, label %switch.early.test.i

switch.early.test.i:                              ; preds = %1
  %3 = add i32 %0, -4096
  %4 = tail call i32 @llvm.fshl.i32(i32 %3, i32 %3, i32 20)
  switch i32 %4, label %_ZN5ImGui15IsNamedKeyOrModE8ImGuiKey.exit [
    i32 3, label %5
    i32 1, label %5
    i32 0, label %5
    i32 7, label %5
  ]

5:                                                ; preds = %switch.early.test.i, %switch.early.test.i, %switch.early.test.i, %switch.early.test.i, %1
  %6 = load ptr, ptr @GImGui, align 8, !tbaa !211
  %7 = and i32 %0, 61440
  %.not.i = icmp eq i32 %7, 0
  br i1 %.not.i, label %_ZN5ImGui15GetKeyOwnerDataEP12ImGuiContext8ImGuiKey.exit, label %8

8:                                                ; preds = %5
  %9 = add i32 %0, -4096
  %10 = tail call i32 @llvm.fshl.i32(i32 %9, i32 %9, i32 20)
  %11 = icmp ult i32 %10, 8
  br i1 %11, label %switch.hole_check, label %_ZN5ImGui15GetKeyOwnerDataEP12ImGuiContext8ImGuiKey.exit

switch.hole_check:                                ; preds = %8
  %switch.maskindex = trunc nuw i32 %10 to i8
  %switch.shifted = lshr i8 -117, %switch.maskindex
  %switch.lobit = trunc i8 %switch.shifted to i1
  br i1 %switch.lobit, label %switch.lookup, label %_ZN5ImGui15GetKeyOwnerDataEP12ImGuiContext8ImGuiKey.exit

switch.lookup:                                    ; preds = %switch.hole_check
  %12 = zext nneg i32 %10 to i64
  %switch.gep = getelementptr inbounds nuw [8 x i32], ptr @switch.table._ZN5ImGui16DebugBreakButtonEPKcS1_, i64 0, i64 %12
  %switch.load = load i32, ptr %switch.gep, align 4
  br label %_ZN5ImGui15GetKeyOwnerDataEP12ImGuiContext8ImGuiKey.exit

_ZN5ImGui15GetKeyOwnerDataEP12ImGuiContext8ImGuiKey.exit: ; preds = %8, %switch.hole_check, %switch.lookup, %5
  %.0.i = phi i32 [ %0, %5 ], [ %switch.load, %switch.lookup ], [ %0, %switch.hole_check ], [ %0, %8 ]
  %13 = getelementptr inbounds nuw i8, ptr %6, i64 5156
  %14 = add nsw i32 %.0.i, -512
  %15 = sext i32 %14 to i64
  %16 = getelementptr inbounds [154 x %struct.ImGuiKeyOwnerData], ptr %13, i64 0, i64 %15
  %17 = load i32, ptr %16, align 4, !tbaa !566
  %18 = getelementptr inbounds nuw i8, ptr %6, i64 7356
  %19 = load i8, ptr %18, align 4, !tbaa !602, !range !92, !noundef !93
  %20 = trunc nuw i8 %19 to i1
  br i1 %20, label %21, label %26

21:                                               ; preds = %_ZN5ImGui15GetKeyOwnerDataEP12ImGuiContext8ImGuiKey.exit
  %22 = getelementptr inbounds nuw i8, ptr %6, i64 5044
  %23 = load i32, ptr %22, align 4, !tbaa !750
  %24 = icmp ne i32 %17, %23
  %25 = icmp ne i32 %17, 0
  %or.cond = and i1 %25, %24
  %or.cond3 = icmp ult i32 %2, 119
  %or.cond14 = and i1 %or.cond3, %or.cond
  br i1 %or.cond14, label %_ZN5ImGui15IsNamedKeyOrModE8ImGuiKey.exit, label %26

26:                                               ; preds = %21, %_ZN5ImGui15GetKeyOwnerDataEP12ImGuiContext8ImGuiKey.exit
  br label %_ZN5ImGui15IsNamedKeyOrModE8ImGuiKey.exit

_ZN5ImGui15IsNamedKeyOrModE8ImGuiKey.exit:        ; preds = %switch.early.test.i, %26, %21
  %.0 = phi i32 [ %17, %26 ], [ -1, %21 ], [ -1, %switch.early.test.i ]
  ret i32 %.0
}